target datalayout = "e-m:e-p270:32:32-p271:32:32-p272:64:64-i64:64-i128:128-f80:128-n8:16:32:64-S128"
target triple = "x86_64-pc-linux-gnu"

%"class.euf::ac_plugin" = type { %"class.euf::plugin", i32, i32, ptr, %class.vector, %class.ptr_vector, %class.svector, %class.vector.2, %class.svector.3, %class.stacked_dependency_manager, %class.tracked_uint_set, %class.tracked_uint_set, i64, %"struct.euf::ac_plugin::monomial_hash", %"struct.euf::ac_plugin::monomial_eq", %class.map, %class.svector.11, %class.ptr_vector, %class.svector.13, %class.svector.15, %class.svector.17, %"class.std::function", %class.ptr_vector.19, %class.ptr_vector, %class.ptr_vector, %class.ptr_vector, %class.ptr_vector, %"struct.euf::ac_plugin::ref_counts", %"struct.euf::ac_plugin::ref_counts", %"struct.euf::ac_plugin::ref_counts", %"struct.euf::ac_plugin::ref_counts", %"struct.euf::ac_plugin::ref_counts", %"struct.euf::ac_plugin::ref_counts", %class.svector.9, %class.svector }
%"class.euf::plugin" = type { ptr, ptr }
%class.vector = type { ptr }
%class.vector.2 = type { ptr }
%class.svector.3 = type { %class.vector.4 }
%class.vector.4 = type { ptr }
%class.stacked_dependency_manager = type { [8 x i8], %"class.stacked_dependency_manager<euf::justification>::config::allocator", %class.dependency_manager }
%"class.stacked_dependency_manager<euf::justification>::config::allocator" = type { ptr }
%class.dependency_manager = type { ptr, ptr, %class.ptr_vector.5 }
%class.ptr_vector.5 = type { %class.vector.6 }
%class.vector.6 = type { ptr }
%class.tracked_uint_set = type { %class.svector.7, %class.svector.9 }
%class.svector.7 = type { %class.vector.8 }
%class.vector.8 = type { ptr }
%"struct.euf::ac_plugin::monomial_hash" = type { ptr }
%"struct.euf::ac_plugin::monomial_eq" = type { ptr }
%class.map = type { %class.table2map }
%class.table2map = type { %class.core_hashtable }
%class.core_hashtable = type <{ %"struct.table2map<default_map_entry<unsigned int, euf::ac_plugin::shared>, euf::ac_plugin::monomial_hash, euf::ac_plugin::monomial_eq>::entry_hash_proc", %"struct.table2map<default_map_entry<unsigned int, euf::ac_plugin::shared>, euf::ac_plugin::monomial_hash, euf::ac_plugin::monomial_eq>::entry_eq_proc", ptr, i32, i32, i32, [4 x i8] }>
%"struct.table2map<default_map_entry<unsigned int, euf::ac_plugin::shared>, euf::ac_plugin::monomial_hash, euf::ac_plugin::monomial_eq>::entry_hash_proc" = type { %"struct.euf::ac_plugin::monomial_hash" }
%"struct.table2map<default_map_entry<unsigned int, euf::ac_plugin::shared>, euf::ac_plugin::monomial_hash, euf::ac_plugin::monomial_eq>::entry_eq_proc" = type { %"struct.euf::ac_plugin::monomial_eq" }
%class.svector.11 = type { %class.vector.12 }
%class.vector.12 = type { ptr }
%class.svector.13 = type { %class.vector.14 }
%class.vector.14 = type { ptr }
%class.svector.15 = type { %class.vector.16 }
%class.vector.16 = type { ptr }
%class.svector.17 = type { %class.vector.18 }
%class.vector.18 = type { ptr }
%"class.std::function" = type { %"class.std::_Function_base", ptr }
%"class.std::_Function_base" = type { %"union.std::_Any_data", ptr }
%"union.std::_Any_data" = type { %"union.std::_Nocopy_types" }
%"union.std::_Nocopy_types" = type { { i64, i64 } }
%class.ptr_vector.19 = type { %class.vector.20 }
%class.vector.20 = type { ptr }
%class.ptr_vector = type { %class.vector.0 }
%class.vector.0 = type { ptr }
%"struct.euf::ac_plugin::ref_counts" = type { %class.svector.9, %class.svector.9 }
%class.svector.9 = type { %class.vector.10 }
%class.vector.10 = type { ptr }
%class.svector = type { %class.vector.1 }
%class.vector.1 = type { ptr }
%class.decl = type { %class.ast, %class.symbol, ptr }
%class.ast = type { i32, i32, i32, i32 }
%class.symbol = type { ptr }
%"class.euf::enode" = type { ptr, i8, i8, i8, i8, i8, i8, i8, i8, i8, i32, i32, i32, i32, i32, i32, %class.ptr_vector.19, ptr, ptr, ptr, ptr, %class.id_var_list, %"class.euf::justification", %"class.euf::justification", i32, i8, %class.approx_set, %class.approx_set, [0 x ptr] }
%class.id_var_list = type { i32, ptr }
%"class.euf::justification" = type { i32, %union.anon, %union.anon.41 }
%union.anon = type { ptr }
%union.anon.41 = type { ptr }
%class.approx_set = type { %class.approx_set_tpl }
%class.approx_set_tpl = type { i64 }
%"struct.euf::ac_plugin::eq" = type { i32, i32, i32, %"class.euf::justification" }
%class.decl_info = type <{ i32, i32, %class.vector.100, i8, [7 x i8] }>
%class.vector.100 = type { ptr }
%class.app = type { %class.expr, ptr, i32, %struct.app_flags, [0 x ptr] }
%class.expr = type { %class.ast }
%struct.app_flags = type <{ i16, i8, i8 }>

; Function Attrs: mustprogress nounwind uwtable
define linkonce_odr hidden noundef i32 @_ZNK3ast8get_kindEv(ptr noundef nonnull align 4 dereferenceable(16) %0) #5 comdat align 2 {
  %2 = alloca ptr, align 8
  store ptr %0, ptr %2, align 8, !tbaa !265
  %3 = load ptr, ptr %2, align 8
  %4 = getelementptr inbounds nuw %class.ast, ptr %3, i32 0, i32 1
  %5 = load i32, ptr %4, align 4
  %6 = and i32 %5, 65535
  ret i32 %6
}

; Function Attrs: mustprogress nounwind uwtable
define linkonce_odr hidden noundef i32 @_ZNK9decl_info13get_decl_kindEv(ptr noundef nonnull align 8 dereferenceable(17) %0) #5 comdat align 2 {
  %2 = alloca ptr, align 8
  store ptr %0, ptr %2, align 8, !tbaa !343
  %3 = load ptr, ptr %2, align 8
  %4 = getelementptr inbounds nuw %class.decl_info, ptr %3, i32 0, i32 1
  %5 = load i32, ptr %4, align 4, !tbaa !354
  ret i32 %5
}

; Function Attrs: mustprogress nounwind uwtable
define linkonce_odr hidden noundef i32 @_ZNK9decl_info13get_family_idEv(ptr noundef nonnull align 8 dereferenceable(17) %0) #5 comdat align 2 {
  %2 = alloca ptr, align 8
  store ptr %0, ptr %2, align 8, !tbaa !343
  %3 = load ptr, ptr %2, align 8
  %4 = getelementptr inbounds nuw %class.decl_info, ptr %3, i32 0, i32 0
  %5 = load i32, ptr %4, align 8, !tbaa !344
  ret i32 %5
}

; Function Attrs: mustprogress nounwind uwtable
define linkonce_odr hidden noundef ptr @_ZNK3app8get_declEv(ptr noundef nonnull align 8 dereferenceable(32) %0) #5 comdat align 2 {
  %2 = alloca ptr, align 8
  store ptr %0, ptr %2, align 8, !tbaa !348
  %3 = load ptr, ptr %2, align 8
  %4 = getelementptr inbounds nuw %class.app, ptr %3, i32 0, i32 1
  %5 = load ptr, ptr %4, align 8, !tbaa !350
  ret ptr %5
}

; Function Attrs: inlinehint mustprogress nounwind uwtable
define linkonce_odr hidden noundef ptr @_Z6to_appP3ast(ptr noundef %0) #6 comdat {
  %2 = alloca ptr, align 8
  store ptr %0, ptr %2, align 8, !tbaa !265
  %3 = load ptr, ptr %2, align 8, !tbaa !265
  ret ptr %3
}

; Function Attrs: inlinehint mustprogress uwtable
define linkonce_odr hidden noundef zeroext i1 @_Z6is_appPK3ast(ptr noundef %0) #9 comdat {
  %2 = alloca ptr, align 8
  store ptr %0, ptr %2, align 8, !tbaa !265
  %3 = load ptr, ptr %2, align 8, !tbaa !265
  %4 = call noundef i32 @_ZNK3ast8get_kindEv(ptr noundef nonnull align 4 dereferenceable(16) %3)
  %5 = icmp eq i32 %4, 0
  ret i1 %5
}

; Function Attrs: mustprogress uwtable
define linkonce_odr hidden noundef i32 @_ZNK4decl13get_decl_kindEv(ptr noundef nonnull align 8 dereferenceable(32) %0) #4 comdat align 2 {
  %2 = alloca ptr, align 8
  store ptr %0, ptr %2, align 8, !tbaa !144
  %3 = load ptr, ptr %2, align 8
  %4 = getelementptr inbounds nuw %class.decl, ptr %3, i32 0, i32 2
  %5 = load ptr, ptr %4, align 8, !tbaa !146
  %6 = icmp eq ptr %5, null
  br i1 %6, label %7, label %8

7:                                                ; preds = %1
  br label %12

8:                                                ; preds = %1
  %9 = getelementptr inbounds nuw %class.decl, ptr %3, i32 0, i32 2
  %10 = load ptr, ptr %9, align 8, !tbaa !146
  %11 = call noundef i32 @_ZNK9decl_info13get_decl_kindEv(ptr noundef nonnull align 8 dereferenceable(17) %10)
  br label %12

12:                                               ; preds = %8, %7
  %13 = phi i32 [ -1, %7 ], [ %11, %8 ]
  ret i32 %13
}

; Function Attrs: mustprogress uwtable
define linkonce_odr hidden noundef i32 @_ZNK4decl13get_family_idEv(ptr noundef nonnull align 8 dereferenceable(32) %0) #4 comdat align 2 {
  %2 = alloca ptr, align 8
  store ptr %0, ptr %2, align 8, !tbaa !144
  %3 = load ptr, ptr %2, align 8
  %4 = getelementptr inbounds nuw %class.decl, ptr %3, i32 0, i32 2
  %5 = load ptr, ptr %4, align 8, !tbaa !146
  %6 = icmp eq ptr %5, null
  br i1 %6, label %7, label %8

7:                                                ; preds = %1
  br label %12

8:                                                ; preds = %1
  %9 = getelementptr inbounds nuw %class.decl, ptr %3, i32 0, i32 2
  %10 = load ptr, ptr %9, align 8, !tbaa !146
  %11 = call noundef i32 @_ZNK9decl_info13get_family_idEv(ptr noundef nonnull align 8 dereferenceable(17) %10)
  br label %12

12:                                               ; preds = %8, %7
  %13 = phi i32 [ -1, %7 ], [ %11, %8 ]
  ret i32 %13
}

; Function Attrs: mustprogress uwtable
define linkonce_odr hidden noundef ptr @_ZNK3euf5enode8get_declEv(ptr noundef nonnull align 8 dereferenceable(176) %0) #4 comdat align 2 {
  %2 = alloca ptr, align 8
  store ptr %0, ptr %2, align 8, !tbaa !151
  %3 = load ptr, ptr %2, align 8
  %4 = getelementptr inbounds nuw %"class.euf::enode", ptr %3, i32 0, i32 0
  %5 = load ptr, ptr %4, align 8, !tbaa !173
  %6 = call noundef zeroext i1 @_Z6is_appPK3ast(ptr noundef %5)
  br i1 %6, label %7, label %12

7:                                                ; preds = %1
  %8 = getelementptr inbounds nuw %"class.euf::enode", ptr %3, i32 0, i32 0
  %9 = load ptr, ptr %8, align 8, !tbaa !173
  %10 = call noundef ptr @_Z6to_appP3ast(ptr noundef %9)
  %11 = call noundef ptr @_ZNK3app8get_declEv(ptr noundef nonnull align 8 dereferenceable(32) %10)
  br label %13

12:                                               ; preds = %1
  br label %13

13:                                               ; preds = %12, %7
  %14 = phi ptr [ %11, %7 ], [ null, %12 ]
  ret ptr %14
}

; Function Attrs: mustprogress nounwind uwtable
define linkonce_odr hidden void @_ZN3euf13justificationC2EPNS_5enodeES2_(ptr noundef nonnull align 8 dereferenceable(24) %0, ptr noundef %1, ptr noundef %2) unnamed_addr #5 comdat align 2 {
  %4 = alloca ptr, align 8
  %5 = alloca ptr, align 8
  %6 = alloca ptr, align 8
  store ptr %0, ptr %4, align 8, !tbaa !316
  store ptr %1, ptr %5, align 8, !tbaa !151
  store ptr %2, ptr %6, align 8, !tbaa !151
  %7 = load ptr, ptr %4, align 8
  %8 = getelementptr inbounds nuw %"class.euf::justification", ptr %7, i32 0, i32 0
  store i32 4, ptr %8, align 8, !tbaa !385
  %9 = getelementptr inbounds nuw %"class.euf::justification", ptr %7, i32 0, i32 1
  %10 = load ptr, ptr %5, align 8, !tbaa !151
  store ptr %10, ptr %9, align 8, !tbaa !189
  %11 = getelementptr inbounds nuw %"class.euf::justification", ptr %7, i32 0, i32 2
  %12 = load ptr, ptr %6, align 8, !tbaa !151
  store ptr %12, ptr %11, align 8, !tbaa !189
  ret void
}

; Function Attrs: mustprogress nounwind uwtable
define linkonce_odr hidden void @_ZN3euf9ac_plugin2eqC2EjjNS_13justificationE(ptr noundef nonnull align 8 dereferenceable(40) %0, i32 noundef %1, i32 noundef %2, ptr noundef byval(%"class.euf::justification") align 8 %3) unnamed_addr #5 comdat align 2 {
  %5 = alloca ptr, align 8
  %6 = alloca i32, align 4
  %7 = alloca i32, align 4
  store ptr %0, ptr %5, align 8, !tbaa !198
  store i32 %1, ptr %6, align 4, !tbaa !10
  store i32 %2, ptr %7, align 4, !tbaa !10
  %8 = load ptr, ptr %5, align 8
  %9 = getelementptr inbounds nuw %"struct.euf::ac_plugin::eq", ptr %8, i32 0, i32 0
  %10 = load i32, ptr %6, align 4, !tbaa !10
  store i32 %10, ptr %9, align 8, !tbaa !274
  %11 = getelementptr inbounds nuw %"struct.euf::ac_plugin::eq", ptr %8, i32 0, i32 1
  %12 = load i32, ptr %7, align 4, !tbaa !10
  store i32 %12, ptr %11, align 4, !tbaa !275
  %13 = getelementptr inbounds nuw %"struct.euf::ac_plugin::eq", ptr %8, i32 0, i32 2
  store i32 1, ptr %13, align 8, !tbaa !272
  %14 = getelementptr inbounds nuw %"struct.euf::ac_plugin::eq", ptr %8, i32 0, i32 3
  call void @llvm.memcpy.p0.p0.i64(ptr align 8 %14, ptr align 8 %3, i64 24, i1 false), !tbaa.struct !278
  ret void
}

; Function Attrs: mustprogress uwtable
define linkonce_odr hidden noundef zeroext i1 @_ZNK3euf9ac_plugin5is_opEPNS_5enodeE(ptr noundef nonnull align 8 dereferenceable(432) %0, ptr noundef %1) #4 comdat align 2 {
  %3 = alloca ptr, align 8
  %4 = alloca ptr, align 8
  %5 = alloca ptr, align 8
  store ptr %0, ptr %3, align 8, !tbaa !3
  store ptr %1, ptr %4, align 8, !tbaa !151
  %6 = load ptr, ptr %3, align 8
  call void @llvm.lifetime.start.p0(i64 8, ptr %5) #3
  %7 = load ptr, ptr %4, align 8, !tbaa !151
  %8 = call noundef ptr @_ZNK3euf5enode8get_declEv(ptr noundef nonnull align 8 dereferenceable(176) %7)
  store ptr %8, ptr %5, align 8, !tbaa !143
  %9 = load ptr, ptr %5, align 8, !tbaa !143
  %10 = icmp ne ptr %9, null
  br i1 %10, label %11, label %32

11:                                               ; preds = %2
  %12 = load ptr, ptr %5, align 8, !tbaa !143
  %13 = getelementptr inbounds nuw %"class.euf::ac_plugin", ptr %6, i32 0, i32 3
  %14 = load ptr, ptr %13, align 8, !tbaa !76
  %15 = icmp eq ptr %12, %14
  br i1 %15, label %30, label %16

16:                                               ; preds = %11
  %17 = getelementptr inbounds nuw %"class.euf::ac_plugin", ptr %6, i32 0, i32 1
  %18 = load i32, ptr %17, align 8, !tbaa !14
  %19 = load ptr, ptr %5, align 8, !tbaa !143
  %20 = call noundef i32 @_ZNK4decl13get_family_idEv(ptr noundef nonnull align 8 dereferenceable(32) %19)
  %21 = icmp eq i32 %18, %20
  br i1 %21, label %22, label %28

22:                                               ; preds = %16
  %23 = getelementptr inbounds nuw %"class.euf::ac_plugin", ptr %6, i32 0, i32 2
  %24 = load i32, ptr %23, align 4, !tbaa !75
  %25 = load ptr, ptr %5, align 8, !tbaa !143
  %26 = call noundef i32 @_ZNK4decl13get_decl_kindEv(ptr noundef nonnull align 8 dereferenceable(32) %25)
  %27 = icmp eq i32 %24, %26
  br label %28

28:                                               ; preds = %22, %16
  %29 = phi i1 [ false, %16 ], [ %27, %22 ]
  br label %30

30:                                               ; preds = %28, %11
  %31 = phi i1 [ true, %11 ], [ %29, %28 ]
  br label %32

32:                                               ; preds = %30, %2
  %33 = phi i1 [ false, %2 ], [ %31, %30 ]
  call void @llvm.lifetime.end.p0(i64 8, ptr %5) #3
  ret i1 %33
}

; Function Attrs: mustprogress uwtable
define linkonce_odr hidden void @_ZN3euf13justification8equalityEPNS_5enodeES2_(ptr dead_on_unwind noalias writable sret(%"class.euf::justification") align 8 %0, ptr noundef %1, ptr noundef %2) #4 comdat align 2 {
  %4 = alloca ptr, align 8
  %5 = alloca ptr, align 8
  store ptr %1, ptr %4, align 8, !tbaa !151
  store ptr %2, ptr %5, align 8, !tbaa !151
  %6 = load ptr, ptr %4, align 8, !tbaa !151
  %7 = load ptr, ptr %5, align 8, !tbaa !151
  call void @_ZN3euf13justificationC2EPNS_5enodeES2_(ptr noundef nonnull align 8 dereferenceable(24) %0, ptr noundef %6, ptr noundef %7)
  ret void
}

; Function Attrs: mustprogress uwtable
define hidden void @_ZN3euf9ac_plugin8merge_ehEPNS_5enodeES2_(ptr noundef nonnull align 8 dereferenceable(432) %0, ptr noundef %1, ptr noundef %2) unnamed_addr #4 align 2 {
  %4 = alloca ptr, align 8
  %5 = alloca ptr, align 8
  %6 = alloca ptr, align 8
  %7 = alloca %"class.euf::justification", align 8
  %8 = alloca %"class.euf::justification", align 8
  %9 = alloca %"struct.euf::ac_plugin::eq", align 8
  %10 = alloca %"class.euf::justification", align 8
  store ptr %0, ptr %4, align 8, !tbaa !3
  store ptr %1, ptr %5, align 8, !tbaa !151
  store ptr %2, ptr %6, align 8, !tbaa !151
  %11 = load ptr, ptr %4, align 8
  %12 = load ptr, ptr %5, align 8, !tbaa !151
  %13 = load ptr, ptr %6, align 8, !tbaa !151
  %14 = icmp eq ptr %12, %13
  br i1 %14, label %15, label %16

15:                                               ; preds = %3
  br label %35

16:                                               ; preds = %3
  call void @llvm.lifetime.start.p0(i64 24, ptr %7) #3
  %17 = load ptr, ptr %5, align 8, !tbaa !151
  %18 = load ptr, ptr %6, align 8, !tbaa !151
  call void @_ZN3euf13justification8equalityEPNS_5enodeES2_(ptr dead_on_unwind writable sret(%"class.euf::justification") align 8 %7, ptr noundef %17, ptr noundef %18)
  %19 = load ptr, ptr %5, align 8, !tbaa !151
  %20 = call noundef zeroext i1 @_ZNK3euf9ac_plugin5is_opEPNS_5enodeE(ptr noundef nonnull align 8 dereferenceable(432) %11, ptr noundef %19)
  br i1 %20, label %29, label %21

21:                                               ; preds = %16
  %22 = load ptr, ptr %6, align 8, !tbaa !151
  %23 = call noundef zeroext i1 @_ZNK3euf9ac_plugin5is_opEPNS_5enodeE(ptr noundef nonnull align 8 dereferenceable(432) %11, ptr noundef %22)
  br i1 %23, label %29, label %24

24:                                               ; preds = %21
  %25 = load ptr, ptr %5, align 8, !tbaa !151
  %26 = call noundef ptr @_ZN3euf9ac_plugin7mk_nodeEPNS_5enodeE(ptr noundef nonnull align 8 dereferenceable(432) %11, ptr noundef %25)
  %27 = load ptr, ptr %6, align 8, !tbaa !151
  %28 = call noundef ptr @_ZN3euf9ac_plugin7mk_nodeEPNS_5enodeE(ptr noundef nonnull align 8 dereferenceable(432) %11, ptr noundef %27)
  call void @llvm.memcpy.p0.p0.i64(ptr align 8 %8, ptr align 8 %7, i64 24, i1 false), !tbaa.struct !278
  call void @_ZN3euf9ac_plugin5mergeEPNS0_4nodeES2_NS_13justificationE(ptr noundef nonnull align 8 dereferenceable(432) %11, ptr noundef %26, ptr noundef %28, ptr noundef byval(%"class.euf::justification") align 8 %8)
  br label %34

29:                                               ; preds = %21, %16
  call void @llvm.lifetime.start.p0(i64 40, ptr %9) #3
  %30 = load ptr, ptr %5, align 8, !tbaa !151
  %31 = call noundef i32 @_ZN3euf9ac_plugin11to_monomialEPNS_5enodeE(ptr noundef nonnull align 8 dereferenceable(432) %11, ptr noundef %30)
  %32 = load ptr, ptr %6, align 8, !tbaa !151
  %33 = call noundef i32 @_ZN3euf9ac_plugin11to_monomialEPNS_5enodeE(ptr noundef nonnull align 8 dereferenceable(432) %11, ptr noundef %32)
  call void @llvm.memcpy.p0.p0.i64(ptr align 8 %10, ptr align 8 %7, i64 24, i1 false), !tbaa.struct !278
  call void @_ZN3euf9ac_plugin2eqC2EjjNS_13justificationE(ptr noundef nonnull align 8 dereferenceable(40) %9, i32 noundef %31, i32 noundef %33, ptr noundef byval(%"class.euf::justification") align 8 %10)
  call void @_ZN3euf9ac_plugin13init_equationERKNS0_2eqE(ptr noundef nonnull align 8 dereferenceable(432) %11, ptr noundef nonnull align 8 dereferenceable(40) %9)
  call void @llvm.lifetime.end.p0(i64 40, ptr %9) #3
  br label %34

34:                                               ; preds = %29, %24
  call void @llvm.lifetime.end.p0(i64 24, ptr %7) #3
  br label %35

35:                                               ; preds = %34, %15
  ret void
}