; Function Attrs: mustprogress uwtable
define hidden void @_ZN3euf9ac_plugin8merge_ehEPNS_5enodeES2_(ptr noundef nonnull align 8 dereferenceable(432) %0, ptr noundef %1, ptr noundef %2) unnamed_addr #3 align 2 {
  %4 = alloca %"class.euf::justification", align 8
  %5 = alloca %"struct.euf::ac_plugin::eq", align 8
  %6 = icmp eq ptr %1, %2
  br i1 %6, label %67, label %7

7:                                                ; preds = %3
  %8 = load ptr, ptr %1, align 8, !tbaa !123
  %9 = getelementptr inbounds nuw i8, ptr %8, i64 4
  %10 = load i32, ptr %9, align 4
  %11 = and i32 %10, 65535
  %12 = icmp eq i32 %11, 0
  br i1 %12, label %_ZNK3euf5enode8get_declEv.exit.i, label %_ZNK3euf9ac_plugin5is_opEPNS_5enodeE.exit.thread

_ZNK3euf5enode8get_declEv.exit.i:                 ; preds = %7
  %13 = getelementptr inbounds nuw i8, ptr %8, i64 16
  %14 = load ptr, ptr %13, align 8, !tbaa !132
  %.not.i = icmp eq ptr %14, null
  br i1 %.not.i, label %_ZNK3euf9ac_plugin5is_opEPNS_5enodeE.exit.thread, label %15

15:                                               ; preds = %_ZNK3euf5enode8get_declEv.exit.i
  %16 = getelementptr inbounds nuw i8, ptr %0, i64 24
  %17 = load ptr, ptr %16, align 8, !tbaa !122
  %18 = icmp eq ptr %14, %17
  br i1 %18, label %_ZNK3euf9ac_plugin5is_opEPNS_5enodeE.exit.thread32, label %19

19:                                               ; preds = %15
  %20 = getelementptr inbounds nuw i8, ptr %0, i64 16
  %21 = load i32, ptr %20, align 8, !tbaa !10
  %22 = getelementptr inbounds nuw i8, ptr %14, i64 24
  %23 = load ptr, ptr %22, align 8, !tbaa !112
  %24 = icmp eq ptr %23, null
  br i1 %24, label %_ZNK4decl13get_family_idEv.exit.i, label %_ZNK4decl13get_family_idEv.exit.thread.i

_ZNK4decl13get_family_idEv.exit.i:                ; preds = %19
  %25 = icmp eq i32 %21, -1
  br i1 %25, label %_ZNK3euf9ac_plugin5is_opEPNS_5enodeE.exit, label %_ZNK3euf9ac_plugin5is_opEPNS_5enodeE.exit.thread

_ZNK4decl13get_family_idEv.exit.thread.i:         ; preds = %19
  %26 = load i32, ptr %23, align 8, !tbaa !117
  %27 = icmp eq i32 %21, %26
  br i1 %27, label %28, label %_ZNK3euf9ac_plugin5is_opEPNS_5enodeE.exit.thread

28:                                               ; preds = %_ZNK4decl13get_family_idEv.exit.thread.i
  %29 = getelementptr inbounds nuw i8, ptr %23, i64 4
  %30 = load i32, ptr %29, align 4, !tbaa !136
  br label %_ZNK3euf9ac_plugin5is_opEPNS_5enodeE.exit

_ZNK3euf9ac_plugin5is_opEPNS_5enodeE.exit:        ; preds = %_ZNK4decl13get_family_idEv.exit.i, %28
  %31 = phi i32 [ %30, %28 ], [ -1, %_ZNK4decl13get_family_idEv.exit.i ]
  %.in.i = getelementptr inbounds nuw i8, ptr %0, i64 20
  %32 = load i32, ptr %.in.i, align 4, !tbaa !73
  %33 = icmp eq i32 %32, %31
  br i1 %33, label %_ZNK3euf9ac_plugin5is_opEPNS_5enodeE.exit.thread32, label %_ZNK3euf9ac_plugin5is_opEPNS_5enodeE.exit.thread

_ZNK3euf9ac_plugin5is_opEPNS_5enodeE.exit.thread: ; preds = %7, %_ZNK4decl13get_family_idEv.exit.thread.i, %_ZNK4decl13get_family_idEv.exit.i, %_ZNK3euf5enode8get_declEv.exit.i, %_ZNK3euf9ac_plugin5is_opEPNS_5enodeE.exit
  %34 = load ptr, ptr %2, align 8, !tbaa !123
  %35 = getelementptr inbounds nuw i8, ptr %34, i64 4
  %36 = load i32, ptr %35, align 4
  %37 = and i32 %36, 65535
  %38 = icmp eq i32 %37, 0
  br i1 %38, label %_ZNK3euf5enode8get_declEv.exit.i12, label %_ZNK3euf9ac_plugin5is_opEPNS_5enodeE.exit18.thread

_ZNK3euf5enode8get_declEv.exit.i12:               ; preds = %_ZNK3euf9ac_plugin5is_opEPNS_5enodeE.exit.thread
  %39 = getelementptr inbounds nuw i8, ptr %34, i64 16
  %40 = load ptr, ptr %39, align 8, !tbaa !132
  %.not.i13 = icmp eq ptr %40, null
  br i1 %.not.i13, label %_ZNK3euf9ac_plugin5is_opEPNS_5enodeE.exit18.thread, label %41

41:                                               ; preds = %_ZNK3euf5enode8get_declEv.exit.i12
  %42 = getelementptr inbounds nuw i8, ptr %0, i64 24
  %43 = load ptr, ptr %42, align 8, !tbaa !122
  %44 = icmp eq ptr %40, %43
  br i1 %44, label %_ZNK3euf9ac_plugin5is_opEPNS_5enodeE.exit.thread32, label %45

45:                                               ; preds = %41
  %46 = getelementptr inbounds nuw i8, ptr %0, i64 16
  %47 = load i32, ptr %46, align 8, !tbaa !10
  %48 = getelementptr inbounds nuw i8, ptr %40, i64 24
  %49 = load ptr, ptr %48, align 8, !tbaa !112
  %50 = icmp eq ptr %49, null
  br i1 %50, label %_ZNK4decl13get_family_idEv.exit.i17, label %_ZNK4decl13get_family_idEv.exit.thread.i14

_ZNK4decl13get_family_idEv.exit.i17:              ; preds = %45
  %51 = icmp eq i32 %47, -1
  br i1 %51, label %_ZNK3euf9ac_plugin5is_opEPNS_5enodeE.exit18, label %_ZNK3euf9ac_plugin5is_opEPNS_5enodeE.exit18.thread

_ZNK4decl13get_family_idEv.exit.thread.i14:       ; preds = %45
  %52 = load i32, ptr %49, align 8, !tbaa !117
  %53 = icmp eq i32 %47, %52
  br i1 %53, label %54, label %_ZNK3euf9ac_plugin5is_opEPNS_5enodeE.exit18.thread

54:                                               ; preds = %_ZNK4decl13get_family_idEv.exit.thread.i14
  %55 = getelementptr inbounds nuw i8, ptr %49, i64 4
  %56 = load i32, ptr %55, align 4, !tbaa !136
  br label %_ZNK3euf9ac_plugin5is_opEPNS_5enodeE.exit18

_ZNK3euf9ac_plugin5is_opEPNS_5enodeE.exit18:      ; preds = %_ZNK4decl13get_family_idEv.exit.i17, %54
  %57 = phi i32 [ %56, %54 ], [ -1, %_ZNK4decl13get_family_idEv.exit.i17 ]
  %.in.i16 = getelementptr inbounds nuw i8, ptr %0, i64 20
  %58 = load i32, ptr %.in.i16, align 4, !tbaa !73
  %59 = icmp eq i32 %58, %57
  br i1 %59, label %_ZNK3euf9ac_plugin5is_opEPNS_5enodeE.exit.thread32, label %_ZNK3euf9ac_plugin5is_opEPNS_5enodeE.exit18.thread

_ZNK3euf9ac_plugin5is_opEPNS_5enodeE.exit18.thread: ; preds = %_ZNK3euf9ac_plugin5is_opEPNS_5enodeE.exit.thread, %_ZNK4decl13get_family_idEv.exit.thread.i14, %_ZNK4decl13get_family_idEv.exit.i17, %_ZNK3euf5enode8get_declEv.exit.i12, %_ZNK3euf9ac_plugin5is_opEPNS_5enodeE.exit18
  %60 = tail call noundef ptr @_ZN3euf9ac_plugin7mk_nodeEPNS_5enodeE(ptr noundef nonnull align 8 dereferenceable(432) %0, ptr noundef nonnull %1)
  %61 = tail call noundef ptr @_ZN3euf9ac_plugin7mk_nodeEPNS_5enodeE(ptr noundef nonnull align 8 dereferenceable(432) %0, ptr noundef nonnull %2)
  tail call void @_ZN3euf9ac_plugin5mergeEPNS0_4nodeES2_NS_13justificationE(ptr noundef nonnull align 8 dereferenceable(432) %0, ptr noundef %60, ptr noundef %61, ptr noundef nonnull byval(%"class.euf::justification") align 8 %4)
  br label %67

_ZNK3euf9ac_plugin5is_opEPNS_5enodeE.exit.thread32: ; preds = %41, %15, %_ZNK3euf9ac_plugin5is_opEPNS_5enodeE.exit18, %_ZNK3euf9ac_plugin5is_opEPNS_5enodeE.exit
  call void @llvm.lifetime.start.p0(i64 40, ptr nonnull %5) #24
  %62 = tail call noundef i32 @_ZN3euf9ac_plugin11to_monomialEPNS_5enodeE(ptr noundef nonnull align 8 dereferenceable(432) %0, ptr noundef nonnull %1)
  %63 = tail call noundef i32 @_ZN3euf9ac_plugin11to_monomialEPNS_5enodeE(ptr noundef nonnull align 8 dereferenceable(432) %0, ptr noundef %2)
  store i32 %62, ptr %5, align 8, !tbaa !221
  %64 = getelementptr inbounds nuw i8, ptr %5, i64 4
  store i32 %63, ptr %64, align 4, !tbaa !222
  %65 = getelementptr inbounds nuw i8, ptr %5, i64 8
  store i32 1, ptr %65, align 8, !tbaa !219
  %66 = getelementptr inbounds nuw i8, ptr %5, i64 16
  store i32 4, ptr %66, align 8, !tbaa !145
  %.sroa.530.0..sroa_idx = getelementptr inbounds nuw i8, ptr %5, i64 24
  store ptr %1, ptr %.sroa.530.0..sroa_idx, align 8, !tbaa !89
  %.sroa.631.0..sroa_idx = getelementptr inbounds nuw i8, ptr %5, i64 32
  store ptr %2, ptr %.sroa.631.0..sroa_idx, align 8, !tbaa !89
  call void @_ZN3euf9ac_plugin13init_equationERKNS0_2eqE(ptr noundef nonnull align 8 dereferenceable(432) %0, ptr noundef nonnull align 8 dereferenceable(40) %5)
  call void @llvm.lifetime.end.p0(i64 40, ptr nonnull %5) #24
  br label %67

67:                                               ; preds = %_ZNK3euf9ac_plugin5is_opEPNS_5enodeE.exit18.thread, %_ZNK3euf9ac_plugin5is_opEPNS_5enodeE.exit.thread32, %3
  ret void
}